; Function Attrs: mustprogress nounwind uwtable
define void @_ZN19OpenColorIO_v2_5dev6Config27setDefaultViewTransformNameEPKc(ptr noundef nonnull readonly align 8 captures(none) dereferenceable(8) %0, ptr noundef %1) local_unnamed_addr #6 align 2 personality ptr @__gxx_personality_v0 {
  %.not = icmp eq ptr %1, null
  %3 = select i1 %.not, ptr @.str.25, ptr %1
  %4 = load ptr, ptr %0, align 8, !tbaa !34
  %5 = getelementptr inbounds nuw i8, ptr %4, i64 616
  %6 = getelementptr inbounds nuw i8, ptr %4, i64 624
  %7 = load i64, ptr %6, align 8, !tbaa !25
  %8 = tail call noundef i64 @strlen(ptr noundef nonnull dereferenceable(1) %3) #34
  %9 = invoke noundef nonnull align 8 dereferenceable(32) ptr @_ZNSt7__cxx1112basic_stringIcSt11char_traitsIcESaIcEE10_M_replaceEmmPKcm(ptr noundef nonnull align 8 dereferenceable(32) %5, i64 noundef 0, i64 noundef %7, ptr noundef nonnull %3, i64 noundef %8)
          to label %_ZNSt7__cxx1112basic_stringIcSt11char_traitsIcESaIcEEaSEPKc.exit unwind label %17

_ZNSt7__cxx1112basic_stringIcSt11char_traitsIcESaIcEEaSEPKc.exit: ; preds = %2
  %10 = load ptr, ptr %0, align 8, !tbaa !34
  %11 = getelementptr inbounds nuw i8, ptr %10, i64 872
  %12 = tail call noundef i32 @pthread_mutex_lock(ptr noundef nonnull align 8 dereferenceable(40) %11) #34
  %.not.i.i = icmp eq i32 %12, 0
  br i1 %.not.i.i, label %_ZNSt10lock_guardISt5mutexEC2ERS0_.exit, label %13

13:                                               ; preds = %_ZNSt7__cxx1112basic_stringIcSt11char_traitsIcESaIcEEaSEPKc.exit
  invoke void @_ZSt20__throw_system_errori(i32 noundef %12) #35
          to label %.noexc unwind label %17

.noexc:                                           ; preds = %13
  unreachable

_ZNSt10lock_guardISt5mutexEC2ERS0_.exit:          ; preds = %_ZNSt7__cxx1112basic_stringIcSt11char_traitsIcESaIcEEaSEPKc.exit
  %14 = load ptr, ptr %0, align 8, !tbaa !34
  invoke void @_ZN19OpenColorIO_v2_5dev6Config4Impl13resetCacheIDsEv(ptr noundef nonnull align 8 dereferenceable(1120) %14)
          to label %15 unwind label %17

15:                                               ; preds = %_ZNSt10lock_guardISt5mutexEC2ERS0_.exit
  %16 = tail call noundef i32 @pthread_mutex_unlock(ptr noundef nonnull align 8 dereferenceable(40) %11) #34
  ret void

17:                                               ; preds = %13, %2, %_ZNSt10lock_guardISt5mutexEC2ERS0_.exit
  %18 = landingpad { ptr, i32 }
          catch ptr null
  %19 = extractvalue { ptr, i32 } %18, 0
  tail call void @__clang_call_terminate(ptr %19) #38
  unreachable
}